target datalayout = "e-m:e-p270:32:32-p271:32:32-p272:64:64-i64:64-i128:128-f80:128-n8:16:32:64-S128"
target triple = "x86_64-pc-linux-gnu"

%struct.radix_obj_st = type { ptr, ptr, i8 }

; Function Attrs: nounwind uwtable
define internal void @per_op_tick_obj(ptr noundef %0) #0 {
  %2 = alloca ptr, align 8
  store ptr %0, ptr %2, align 8, !tbaa !51
  %3 = load ptr, ptr %2, align 8, !tbaa !51
  %4 = getelementptr inbounds nuw %struct.radix_obj_st, ptr %3, i32 0, i32 2
  %5 = load i8, ptr %4, align 8
  %6 = lshr i8 %5, 1
  %7 = and i8 %6, 1
  %8 = zext i8 %7 to i32
  %9 = icmp ne i32 %8, 0
  br i1 %9, label %10, label %15

10:                                               ; preds = %1
  %11 = load ptr, ptr %2, align 8, !tbaa !51
  %12 = getelementptr inbounds nuw %struct.radix_obj_st, ptr %11, i32 0, i32 1
  %13 = load ptr, ptr %12, align 8, !tbaa !53
  %14 = call i32 @SSL_handle_events(ptr noundef %13)
  br label %15

15:                                               ; preds = %10, %1
  ret void
}