; Function Attrs: nounwind uwtable
define internal void @per_op_tick_obj(ptr noundef readonly captures(none) %0) #1 {
  %2 = getelementptr inbounds nuw i8, ptr %0, i64 16
  %3 = load i8, ptr %2, align 8
  %4 = and i8 %3, 2
  %.not = icmp eq i8 %4, 0
  br i1 %.not, label %9, label %5

5:                                                ; preds = %1
  %6 = getelementptr inbounds nuw i8, ptr %0, i64 8
  %7 = load ptr, ptr %6, align 8, !tbaa !108
  %8 = tail call i32 @SSL_handle_events(ptr noundef %7) #12
  br label %9

9:                                                ; preds = %5, %1
  ret void
}